target datalayout = "e-m:e-p270:32:32-p271:32:32-p272:64:64-i64:64-i128:128-f80:128-n8:16:32:64-S128"
target triple = "x86_64-pc-linux-gnu"

%struct.H5 = type { i64, i64, i32, i32, i32, i32, ptr, ptr, ptr }

; Function Attrs: alwaysinline nounwind uwtable
define internal i32 @BrotliUnalignedRead32(ptr noundef %0) #3 {
  %2 = alloca ptr, align 8
  %3 = alloca i32, align 4
  store ptr %0, ptr %2, align 8, !tbaa !48
  call void @llvm.lifetime.start.p0(i64 4, ptr %3) #10
  %4 = load ptr, ptr %2, align 8, !tbaa !48
  call void @llvm.memcpy.p0.p0.i64(ptr align 4 %3, ptr align 1 %4, i64 4, i1 false)
  %5 = load i32, ptr %3, align 4, !tbaa !8
  call void @llvm.lifetime.end.p0(i64 4, ptr %3) #10
  ret i32 %5
}

; Function Attrs: nounwind uwtable
define internal i32 @HashBytesH5(ptr noalias noundef %0, i32 noundef %1) #0 {
  %3 = alloca ptr, align 8
  %4 = alloca i32, align 4
  %5 = alloca i32, align 4
  store ptr %0, ptr %3, align 8, !tbaa !76
  store i32 %1, ptr %4, align 4, !tbaa !8
  call void @llvm.lifetime.start.p0(i64 4, ptr %5) #10
  %6 = load ptr, ptr %3, align 8, !tbaa !76
  %7 = call i32 @BrotliUnalignedRead32(ptr noundef %6)
  %8 = mul i32 %7, 506832829
  store i32 %8, ptr %5, align 4, !tbaa !8
  %9 = load i32, ptr %5, align 4, !tbaa !8
  %10 = load i32, ptr %4, align 4, !tbaa !8
  %11 = lshr i32 %9, %10
  call void @llvm.lifetime.end.p0(i64 4, ptr %5) #10
  ret i32 %11
}

; Function Attrs: nounwind uwtable
define internal void @PrepareH5(ptr noalias noundef %0, i32 noundef %1, i64 noundef %2, ptr noalias noundef %3) #0 {
  %5 = alloca ptr, align 8
  %6 = alloca i32, align 4
  %7 = alloca i64, align 8
  %8 = alloca ptr, align 8
  %9 = alloca ptr, align 8
  %10 = alloca i64, align 8
  %11 = alloca i64, align 8
  %12 = alloca i32, align 4
  store ptr %0, ptr %5, align 8, !tbaa !202
  store i32 %1, ptr %6, align 4, !tbaa !8
  store i64 %2, ptr %7, align 8, !tbaa !75
  store ptr %3, ptr %8, align 8, !tbaa !76
  call void @llvm.lifetime.start.p0(i64 8, ptr %9) #10
  %13 = load ptr, ptr %5, align 8, !tbaa !202
  %14 = getelementptr inbounds nuw %struct.H5, ptr %13, i32 0, i32 7
  %15 = load ptr, ptr %14, align 8, !tbaa !246
  store ptr %15, ptr %9, align 8, !tbaa !119
  call void @llvm.lifetime.start.p0(i64 8, ptr %10) #10
  %16 = load ptr, ptr %5, align 8, !tbaa !202
  %17 = getelementptr inbounds nuw %struct.H5, ptr %16, i32 0, i32 0
  %18 = load i64, ptr %17, align 8, !tbaa !242
  %19 = lshr i64 %18, 6
  store i64 %19, ptr %10, align 8, !tbaa !75
  %20 = load i32, ptr %6, align 4, !tbaa !8
  %21 = icmp ne i32 %20, 0
  br i1 %21, label %22, label %47

22:                                               ; preds = %4
  %23 = load i64, ptr %7, align 8, !tbaa !75
  %24 = load i64, ptr %10, align 8, !tbaa !75
  %25 = icmp ule i64 %23, %24
  br i1 %25, label %26, label %47

26:                                               ; preds = %22
  call void @llvm.lifetime.start.p0(i64 8, ptr %11) #10
  store i64 0, ptr %11, align 8, !tbaa !75
  br label %27

27:                                               ; preds = %43, %26
  %28 = load i64, ptr %11, align 8, !tbaa !75
  %29 = load i64, ptr %7, align 8, !tbaa !75
  %30 = icmp ult i64 %28, %29
  br i1 %30, label %31, label %46

31:                                               ; preds = %27
  call void @llvm.lifetime.start.p0(i64 4, ptr %12) #10
  %32 = load ptr, ptr %8, align 8, !tbaa !76
  %33 = load i64, ptr %11, align 8, !tbaa !75
  %34 = getelementptr inbounds nuw i8, ptr %32, i64 %33
  %35 = load ptr, ptr %5, align 8, !tbaa !202
  %36 = getelementptr inbounds nuw %struct.H5, ptr %35, i32 0, i32 2
  %37 = load i32, ptr %36, align 8, !tbaa !241
  %38 = call i32 @HashBytesH5(ptr noundef %34, i32 noundef %37)
  store i32 %38, ptr %12, align 4, !tbaa !8
  %39 = load ptr, ptr %9, align 8, !tbaa !119
  %40 = load i32, ptr %12, align 4, !tbaa !8
  %41 = zext i32 %40 to i64
  %42 = getelementptr inbounds nuw i16, ptr %39, i64 %41
  store i16 0, ptr %42, align 2, !tbaa !173
  call void @llvm.lifetime.end.p0(i64 4, ptr %12) #10
  br label %43

43:                                               ; preds = %31
  %44 = load i64, ptr %11, align 8, !tbaa !75
  %45 = add i64 %44, 1
  store i64 %45, ptr %11, align 8, !tbaa !75
  br label %27, !llvm.loop !318

46:                                               ; preds = %27
  call void @llvm.lifetime.end.p0(i64 8, ptr %11) #10
  br label %53

47:                                               ; preds = %22, %4
  %48 = load ptr, ptr %9, align 8, !tbaa !119
  %49 = load ptr, ptr %5, align 8, !tbaa !202
  %50 = getelementptr inbounds nuw %struct.H5, ptr %49, i32 0, i32 0
  %51 = load i64, ptr %50, align 8, !tbaa !242
  %52 = mul i64 %51, 2
  call void @llvm.memset.p0.i64(ptr align 2 %48, i8 0, i64 %52, i1 false)
  br label %53

53:                                               ; preds = %47, %46
  call void @llvm.lifetime.end.p0(i64 8, ptr %10) #10
  call void @llvm.lifetime.end.p0(i64 8, ptr %9) #10
  ret void
}