; Function Attrs: nofree norecurse nosync nounwind memory(write, argmem: readwrite, inaccessiblemem: none) uwtable
define internal fastcc void @PrepareH5(ptr noalias noundef readonly captures(none) %0, i32 noundef range(i32 0, 2) %1, i64 noundef range(i64 0, 4294967296) %2, ptr noalias noundef readonly captures(none) %3) unnamed_addr #12 {
  %5 = getelementptr inbounds nuw i8, ptr %0, i64 40
  %6 = load ptr, ptr %5, align 8, !tbaa !268
  %.not = icmp eq i32 %1, 0
  %.pre = load i64, ptr %0, align 8, !tbaa !644
  %7 = lshr i64 %.pre, 6
  %.not15 = icmp samesign ugt i64 %2, %7
  %or.cond = select i1 %.not, i1 true, i1 %.not15
  br i1 %or.cond, label %17, label %.preheader

.preheader:                                       ; preds = %4
  %.not17 = icmp eq i64 %2, 0
  br i1 %.not17, label %.loopexit, label %.lr.ph

.lr.ph:                                           ; preds = %.preheader
  %8 = getelementptr inbounds nuw i8, ptr %0, i64 16
  %9 = load i32, ptr %8, align 8, !tbaa !273
  br label %10

10:                                               ; preds = %.lr.ph, %10
  %.016 = phi i64 [ 0, %.lr.ph ], [ %16, %10 ]
  %11 = getelementptr inbounds nuw i8, ptr %3, i64 %.016
  %.val = load i32, ptr %11, align 1
  %12 = mul i32 %.val, 506832829
  %13 = lshr i32 %12, %9
  %14 = zext i32 %13 to i64
  %15 = getelementptr inbounds nuw i16, ptr %6, i64 %14
  store i16 0, ptr %15, align 2, !tbaa !80
  %16 = add nuw nsw i64 %.016, 1
  %exitcond.not = icmp eq i64 %16, %2
  br i1 %exitcond.not, label %.loopexit, label %10, !llvm.loop !663

17:                                               ; preds = %4
  %18 = shl i64 %.pre, 1
  tail call void @llvm.memset.p0.i64(ptr align 2 %6, i8 0, i64 %18, i1 false)
  br label %.loopexit

.loopexit:                                        ; preds = %10, %.preheader, %17
  ret void
}